; ModuleID = 'source-C-CXX/57/272.c'
source_filename = "source-C-CXX/57/272.c"
target datalayout = "e-m:e-p270:32:32-p271:32:32-p272:64:64-i64:64-f80:128-n8:16:32:64-S128"
target triple = "x86_64-pc-linux-gnu"

%struct._IO_FILE = type { i32, i8*, i8*, i8*, i8*, i8*, i8*, i8*, i8*, i8*, i8*, i8*, %struct._IO_marker*, %struct._IO_FILE*, i32, i32, i64, i16, i8, [1 x i8], i8*, i64, %struct._IO_codecvt*, %struct._IO_wide_data*, %struct._IO_FILE*, i8*, i64, i32, [20 x i8] }
%struct._IO_marker = type opaque
%struct._IO_codecvt = type opaque
%struct._IO_wide_data = type opaque

@.str = private unnamed_addr constant [4 x i8] c"%d\0A\00", align 1
@stdin = external local_unnamed_addr global %struct._IO_FILE*, align 8

; Function Attrs: nounwind sspstrong uwtable
define dso_local i32 @main() local_unnamed_addr #0 {
  %1 = alloca [10 x i8], align 1
  %2 = alloca [1000 x [80 x i8]], align 16
  %3 = getelementptr inbounds [10 x i8], [10 x i8]* %1, i64 0, i64 0
  call void @llvm.lifetime.start.p0i8(i64 10, i8* nonnull %3) #6
  %4 = getelementptr inbounds [1000 x [80 x i8]], [1000 x [80 x i8]]* %2, i64 0, i64 0, i64 0
  call void @llvm.lifetime.start.p0i8(i64 80000, i8* nonnull %4) #6
  %5 = call i32 (i8*, ...) bitcast (i32 (...)* @gets to i32 (i8*, ...)*)(i8* nonnull %3) #6
  %6 = call i64 @strtol(i8* nocapture nonnull %3, i8** null, i32 10) #6
  %7 = trunc i64 %6 to i32
  %8 = icmp sgt i32 %7, 0
  br i1 %8, label %9, label %52

9:                                                ; preds = %0
  %10 = and i64 %6, 4294967295
  br label %11

11:                                               ; preds = %9, %47
  %12 = phi i64 [ 0, %9 ], [ %50, %47 ]
  %13 = getelementptr inbounds [1000 x [80 x i8]], [1000 x [80 x i8]]* %2, i64 0, i64 %12, i64 0
  %14 = call i32 (i8*, ...) bitcast (i32 (...)* @gets to i32 (i8*, ...)*)(i8* nonnull %13) #6
  %15 = call i64 @strlen(i8* noundef nonnull %13) #7
  %16 = trunc i64 %15 to i32
  %17 = load i8, i8* %13, align 16, !tbaa !5
  %18 = add i8 %17, -97
  %19 = icmp ult i8 %18, 26
  br i1 %19, label %25, label %20

20:                                               ; preds = %11
  %21 = add i8 %17, -65
  %22 = icmp ult i8 %21, 26
  %23 = icmp eq i8 %17, 95
  %24 = or i1 %23, %22
  br i1 %24, label %25, label %47

25:                                               ; preds = %20, %11
  %26 = icmp sgt i32 %16, 0
  br i1 %26, label %27, label %47

27:                                               ; preds = %25
  %28 = shl i64 %15, 32
  %29 = ashr exact i64 %28, 32
  br label %30

30:                                               ; preds = %44, %27
  %31 = phi i8 [ %17, %27 ], [ %46, %44 ]
  %32 = phi i64 [ 0, %27 ], [ %42, %44 ]
  %33 = and i8 %31, -33
  %34 = add i8 %33, -65
  %35 = icmp ult i8 %34, 26
  br i1 %35, label %41, label %36

36:                                               ; preds = %30
  %37 = add i8 %31, -48
  %38 = icmp ult i8 %37, 10
  %39 = icmp eq i8 %31, 95
  %40 = or i1 %39, %38
  br i1 %40, label %41, label %47

41:                                               ; preds = %36, %30
  %42 = add nuw nsw i64 %32, 1
  %43 = icmp eq i64 %42, %29
  br i1 %43, label %47, label %44, !llvm.loop !8

44:                                               ; preds = %41
  %45 = getelementptr inbounds [1000 x [80 x i8]], [1000 x [80 x i8]]* %2, i64 0, i64 %12, i64 %42
  %46 = load i8, i8* %45, align 1, !tbaa !5
  br label %30

47:                                               ; preds = %41, %36, %25, %20
  %48 = phi i32 [ 0, %20 ], [ 1, %25 ], [ 1, %41 ], [ 0, %36 ]
  %49 = call i32 (i8*, ...) @printf(i8* nonnull dereferenceable(1) getelementptr inbounds ([4 x i8], [4 x i8]* @.str, i64 0, i64 0), i32 %48)
  %50 = add nuw nsw i64 %12, 1
  %51 = icmp eq i64 %50, %10
  br i1 %51, label %52, label %11, !llvm.loop !10

52:                                               ; preds = %47, %0
  %53 = load %struct._IO_FILE*, %struct._IO_FILE** @stdin, align 8, !tbaa !11
  %54 = call i32 @getc(%struct._IO_FILE* %53) #6
  %55 = load %struct._IO_FILE*, %struct._IO_FILE** @stdin, align 8, !tbaa !11
  %56 = call i32 @getc(%struct._IO_FILE* %55) #6
  call void @llvm.lifetime.end.p0i8(i64 80000, i8* nonnull %4) #6
  call void @llvm.lifetime.end.p0i8(i64 10, i8* nonnull %3) #6
  ret i32 0
}

; Function Attrs: argmemonly mustprogress nofree nosync nounwind willreturn
declare void @llvm.lifetime.start.p0i8(i64 immarg, i8* nocapture) #1

declare i32 @gets(...) local_unnamed_addr #2

; Function Attrs: argmemonly mustprogress nofree nounwind readonly willreturn
declare i64 @strlen(i8* nocapture) local_unnamed_addr #3

; Function Attrs: nofree nounwind
declare noundef i32 @printf(i8* nocapture noundef readonly, ...) local_unnamed_addr #4

; Function Attrs: argmemonly mustprogress nofree nosync nounwind willreturn
declare void @llvm.lifetime.end.p0i8(i64 immarg, i8* nocapture) #1

; Function Attrs: mustprogress nofree nounwind willreturn
declare i64 @strtol(i8* readonly, i8** nocapture, i32) local_unnamed_addr #5

; Function Attrs: nofree nounwind
declare noundef i32 @getc(%struct._IO_FILE* nocapture noundef) local_unnamed_addr #4


!llvm.module.flags = !{!0, !1, !2, !3}
!llvm.ident = !{!4}

!0 = !{i32 1, !"wchar_size", i32 4}
!1 = !{i32 7, !"PIC Level", i32 2}
!2 = !{i32 7, !"PIE Level", i32 2}
!3 = !{i32 7, !"uwtable", i32 1}
!4 = !{!"clang version 13.0.0"}
!5 = !{!6, !6, i64 0}
!6 = !{!"omnipotent char", !7, i64 0}
!7 = !{!"Simple C/C++ TBAA"}
!8 = distinct !{!8, !9}
!9 = !{!"llvm.loop.mustprogress"}
!10 = distinct !{!10, !9}
!11 = !{!12, !12, i64 0}
!12 = !{!"any pointer", !6, i64 0}
